target datalayout = "e-m:e-p270:32:32-p271:32:32-p272:64:64-i64:64-i128:128-f80:128-n8:16:32:64-S128"
target triple = "x86_64-pc-linux-gnu"

%struct.conf_st = type { ptr, ptr, ptr, i32, i32, ptr, ptr }

; Function Attrs: nounwind uwtable
define internal i32 @is_keytype(ptr noundef %0, i8 noundef signext %1, i16 noundef zeroext %2) #0 {
  %4 = alloca i32, align 4
  %5 = alloca ptr, align 8
  %6 = alloca i8, align 1
  %7 = alloca i16, align 2
  %8 = alloca ptr, align 8
  %9 = alloca i8, align 1
  %10 = alloca i32, align 4
  store ptr %0, ptr %5, align 8, !tbaa !8
  store i8 %1, ptr %6, align 1, !tbaa !37
  store i16 %2, ptr %7, align 2, !tbaa !49
  call void @llvm.lifetime.start.p0(i64 8, ptr %8) #9
  %11 = load ptr, ptr %5, align 8, !tbaa !8
  %12 = getelementptr inbounds nuw %struct.conf_st, ptr %11, i32 0, i32 1
  %13 = load ptr, ptr %12, align 8, !tbaa !18
  store ptr %13, ptr %8, align 8, !tbaa !51
  call void @llvm.lifetime.start.p0(i64 1, ptr %9) #9
  %14 = load i8, ptr %6, align 1, !tbaa !37
  store i8 %14, ptr %9, align 1, !tbaa !37
  %15 = load i8, ptr %9, align 1, !tbaa !37
  %16 = zext i8 %15 to i32
  %17 = icmp sgt i32 %16, 127
  br i1 %17, label %18, label %19

18:                                               ; preds = %3
  store i32 0, ptr %4, align 4
  store i32 1, ptr %10, align 4
  br label %31

19:                                               ; preds = %3
  %20 = load ptr, ptr %8, align 8, !tbaa !51
  %21 = load i8, ptr %9, align 1, !tbaa !37
  %22 = zext i8 %21 to i64
  %23 = getelementptr inbounds nuw i16, ptr %20, i64 %22
  %24 = load i16, ptr %23, align 2, !tbaa !49
  %25 = zext i16 %24 to i32
  %26 = load i16, ptr %7, align 2, !tbaa !49
  %27 = zext i16 %26 to i32
  %28 = and i32 %25, %27
  %29 = icmp ne i32 %28, 0
  %30 = select i1 %29, i32 1, i32 0
  store i32 %30, ptr %4, align 4
  store i32 1, ptr %10, align 4
  br label %31

31:                                               ; preds = %19, %18
  call void @llvm.lifetime.end.p0(i64 1, ptr %9) #9
  call void @llvm.lifetime.end.p0(i64 8, ptr %8) #9
  %32 = load i32, ptr %4, align 4
  ret i32 %32
}

; Function Attrs: nounwind uwtable
define internal void @trim_ws(ptr noundef %0, ptr noundef %1) #0 {
  %3 = alloca ptr, align 8
  %4 = alloca ptr, align 8
  %5 = alloca ptr, align 8
  store ptr %0, ptr %3, align 8, !tbaa !8
  store ptr %1, ptr %4, align 8, !tbaa !29
  call void @llvm.lifetime.start.p0(i64 8, ptr %5) #9
  %6 = load ptr, ptr %4, align 8, !tbaa !29
  store ptr %6, ptr %5, align 8, !tbaa !29
  br label %7

7:                                                ; preds = %14, %2
  %8 = load ptr, ptr %3, align 8, !tbaa !8
  %9 = load ptr, ptr %5, align 8, !tbaa !29
  %10 = load i8, ptr %9, align 1, !tbaa !37
  %11 = call i32 @is_keytype(ptr noundef %8, i8 noundef signext %10, i16 noundef zeroext 8)
  %12 = icmp ne i32 %11, 0
  %13 = xor i1 %12, true
  br i1 %13, label %14, label %17

14:                                               ; preds = %7
  %15 = load ptr, ptr %5, align 8, !tbaa !29
  %16 = getelementptr inbounds nuw i8, ptr %15, i32 1
  store ptr %16, ptr %5, align 8, !tbaa !29
  br label %7, !llvm.loop !63

17:                                               ; preds = %7
  %18 = load ptr, ptr %5, align 8, !tbaa !29
  %19 = getelementptr inbounds i8, ptr %18, i32 -1
  store ptr %19, ptr %5, align 8, !tbaa !29
  br label %20

20:                                               ; preds = %32, %17
  %21 = load ptr, ptr %5, align 8, !tbaa !29
  %22 = load ptr, ptr %4, align 8, !tbaa !29
  %23 = icmp uge ptr %21, %22
  br i1 %23, label %24, label %30

24:                                               ; preds = %20
  %25 = load ptr, ptr %3, align 8, !tbaa !8
  %26 = load ptr, ptr %5, align 8, !tbaa !29
  %27 = load i8, ptr %26, align 1, !tbaa !37
  %28 = call i32 @is_keytype(ptr noundef %25, i8 noundef signext %27, i16 noundef zeroext 16)
  %29 = icmp ne i32 %28, 0
  br label %30

30:                                               ; preds = %24, %20
  %31 = phi i1 [ false, %20 ], [ %29, %24 ]
  br i1 %31, label %32, label %35

32:                                               ; preds = %30
  %33 = load ptr, ptr %5, align 8, !tbaa !29
  %34 = getelementptr inbounds i8, ptr %33, i32 -1
  store ptr %34, ptr %5, align 8, !tbaa !29
  br label %20, !llvm.loop !64

35:                                               ; preds = %30
  %36 = load ptr, ptr %5, align 8, !tbaa !29
  %37 = getelementptr inbounds nuw i8, ptr %36, i32 1
  store ptr %37, ptr %5, align 8, !tbaa !29
  %38 = load ptr, ptr %5, align 8, !tbaa !29
  store i8 0, ptr %38, align 1, !tbaa !37
  call void @llvm.lifetime.end.p0(i64 8, ptr %5) #9
  ret void
}