; Function Attrs: nofree norecurse nosync nounwind memory(read, argmem: readwrite, inaccessiblemem: none) uwtable
define internal fastcc void @trim_ws(ptr noundef readonly captures(none) %0, ptr noundef captures(address) %1) unnamed_addr #10 {
  %3 = getelementptr inbounds nuw i8, ptr %0, i64 8
  br label %4

4:                                                ; preds = %is_keytype.exit.thread, %2
  %.0 = phi ptr [ %1, %2 ], [ %12, %is_keytype.exit.thread ]
  %5 = load i8, ptr %.0, align 1, !tbaa !23
  %6 = icmp slt i8 %5, 0
  br i1 %6, label %is_keytype.exit.thread, label %is_keytype.exit

is_keytype.exit:                                  ; preds = %4
  %7 = load ptr, ptr %3, align 8, !tbaa !15
  %8 = zext nneg i8 %5 to i64
  %9 = getelementptr inbounds nuw i16, ptr %7, i64 %8
  %10 = load i16, ptr %9, align 2, !tbaa !26
  %11 = and i16 %10, 8
  %.not = icmp eq i16 %11, 0
  br i1 %.not, label %is_keytype.exit.thread, label %.preheader

is_keytype.exit.thread:                           ; preds = %4, %is_keytype.exit
  %12 = getelementptr inbounds nuw i8, ptr %.0, i64 1
  br label %4, !llvm.loop !45

.preheader:                                       ; preds = %is_keytype.exit, %is_keytype.exit16
  %.0.pn = phi ptr [ %.1, %is_keytype.exit16 ], [ %.0, %is_keytype.exit ]
  %.1 = getelementptr inbounds i8, ptr %.0.pn, i64 -1
  %.not12 = icmp ult ptr %.1, %1
  br i1 %.not12, label %.critedge, label %13

13:                                               ; preds = %.preheader
  %14 = load i8, ptr %.1, align 1, !tbaa !23
  %15 = icmp slt i8 %14, 0
  br i1 %15, label %.critedge, label %is_keytype.exit16

is_keytype.exit16:                                ; preds = %13
  %16 = zext nneg i8 %14 to i64
  %17 = getelementptr inbounds nuw i16, ptr %7, i64 %16
  %18 = load i16, ptr %17, align 2, !tbaa !26
  %19 = and i16 %18, 16
  %.not13 = icmp eq i16 %19, 0
  br i1 %.not13, label %.critedge, label %.preheader, !llvm.loop !46

.critedge:                                        ; preds = %13, %.preheader, %is_keytype.exit16
  store i8 0, ptr %.0.pn, align 1, !tbaa !23
  ret void
}